; ModuleID = '38/35.c'
source_filename = "38/35.c"
target datalayout = "e-m:e-p270:32:32-p271:32:32-p272:64:64-i64:64-f80:128-n8:16:32:64-S128"
target triple = "x86_64-pc-linux-gnu"

@.str = private unnamed_addr constant [3 x i8] c"%d\00", align 1
@.str.1 = private unnamed_addr constant [4 x i8] c"%lf\00", align 1
@.str.2 = private unnamed_addr constant [6 x i8] c"%.5f\0A\00", align 1

; Function Attrs: noinline nounwind uwtable
define dso_local i32 @main() #0 {
  %1 = alloca i32, align 4
  %2 = alloca i32, align 4
  %3 = alloca i32, align 4
  %4 = alloca i32, align 4
  %5 = alloca double, align 8
  %6 = alloca double, align 8
  %7 = alloca double, align 8
  %8 = alloca double*, align 8
  %9 = alloca double*, align 8
  store i32 0, i32* %1, align 4
  store double 0.000000e+00, double* %5, align 8
  store double 0.000000e+00, double* %6, align 8
  %10 = call i32 (i8*, ...) @__isoc99_scanf(i8* getelementptr inbounds ([3 x i8], [3 x i8]* @.str, i64 0, i64 0), i32* %2)
  store i32 0, i32* %4, align 4
  br label %11

11:                                               ; preds = %79, %0
  %12 = load i32, i32* %4, align 4
  %13 = load i32, i32* %2, align 4
  %14 = icmp slt i32 %12, %13
  br i1 %14, label %15, label %82

15:                                               ; preds = %11
  %16 = call i32 (i8*, ...) @__isoc99_scanf(i8* getelementptr inbounds ([3 x i8], [3 x i8]* @.str, i64 0, i64 0), i32* %3)
  %17 = load i32, i32* %3, align 4
  %18 = sext i32 %17 to i64
  %19 = mul i64 8, %18
  %20 = call noalias i8* @malloc(i64 %19) #3
  %21 = bitcast i8* %20 to double*
  store double* %21, double** %9, align 8
  %22 = load double*, double** %9, align 8
  store double* %22, double** %8, align 8
  br label %23

23:                                               ; preds = %37, %15
  %24 = load double*, double** %8, align 8
  %25 = load double*, double** %9, align 8
  %26 = load i32, i32* %3, align 4
  %27 = sext i32 %26 to i64
  %28 = getelementptr inbounds double, double* %25, i64 %27
  %29 = icmp ult double* %24, %28
  br i1 %29, label %30, label %40

30:                                               ; preds = %23
  %31 = load double*, double** %8, align 8
  %32 = call i32 (i8*, ...) @__isoc99_scanf(i8* getelementptr inbounds ([4 x i8], [4 x i8]* @.str.1, i64 0, i64 0), double* %31)
  %33 = load double*, double** %8, align 8
  %34 = load double, double* %33, align 8
  %35 = load double, double* %5, align 8
  %36 = fadd double %35, %34
  store double %36, double* %5, align 8
  br label %37

37:                                               ; preds = %30
  %38 = load double*, double** %8, align 8
  %39 = getelementptr inbounds double, double* %38, i32 1
  store double* %39, double** %8, align 8
  br label %23

40:                                               ; preds = %23
  %41 = load double, double* %5, align 8
  %42 = load i32, i32* %3, align 4
  %43 = sitofp i32 %42 to double
  %44 = fdiv double %41, %43
  store double %44, double* %5, align 8
  %45 = load double*, double** %9, align 8
  store double* %45, double** %8, align 8
  br label %46

46:                                               ; preds = %65, %40
  %47 = load double*, double** %8, align 8
  %48 = load double*, double** %9, align 8
  %49 = load i32, i32* %3, align 4
  %50 = sext i32 %49 to i64
  %51 = getelementptr inbounds double, double* %48, i64 %50
  %52 = icmp ult double* %47, %51
  br i1 %52, label %53, label %68

53:                                               ; preds = %46
  %54 = load double*, double** %8, align 8
  %55 = load double, double* %54, align 8
  %56 = load double, double* %5, align 8
  %57 = fsub double %55, %56
  %58 = load double*, double** %8, align 8
  %59 = load double, double* %58, align 8
  %60 = load double, double* %5, align 8
  %61 = fsub double %59, %60
  %62 = fmul double %57, %61
  %63 = load double, double* %6, align 8
  %64 = fadd double %63, %62
  store double %64, double* %6, align 8
  br label %65

65:                                               ; preds = %53
  %66 = load double*, double** %8, align 8
  %67 = getelementptr inbounds double, double* %66, i32 1
  store double* %67, double** %8, align 8
  br label %46

68:                                               ; preds = %46
  %69 = load double, double* %6, align 8
  %70 = load i32, i32* %3, align 4
  %71 = sitofp i32 %70 to double
  %72 = fdiv double %69, %71
  store double %72, double* %6, align 8
  %73 = load double, double* %6, align 8
  %74 = call double @pow(double %73, double 5.000000e-01) #3
  store double %74, double* %7, align 8
  %75 = load double, double* %7, align 8
  %76 = call i32 (i8*, ...) @printf(i8* getelementptr inbounds ([6 x i8], [6 x i8]* @.str.2, i64 0, i64 0), double %75)
  store double 0.000000e+00, double* %5, align 8
  store double 0.000000e+00, double* %6, align 8
  %77 = load double*, double** %9, align 8
  %78 = bitcast double* %77 to i8*
  call void @free(i8* %78) #3
  br label %79

79:                                               ; preds = %68
  %80 = load i32, i32* %4, align 4
  %81 = add nsw i32 %80, 1
  store i32 %81, i32* %4, align 4
  br label %11

82:                                               ; preds = %11
  ret i32 0
}

declare dso_local i32 @__isoc99_scanf(i8*, ...) #1

; Function Attrs: nounwind
declare dso_local noalias i8* @malloc(i64) #2

; Function Attrs: nounwind
declare dso_local double @pow(double, double) #2

declare dso_local i32 @printf(i8*, ...) #1

; Function Attrs: nounwind
declare dso_local void @free(i8*) #2


!llvm.module.flags = !{!0}
!llvm.ident = !{!1}

!0 = !{i32 1, !"wchar_size", i32 4}
!1 = !{!"clang version 10.0.0-4ubuntu1 "}
