; ModuleID = 'source-C-CXX/37/35.c'
source_filename = "source-C-CXX/37/35.c"
target datalayout = "e-m:e-p270:32:32-p271:32:32-p272:64:64-i64:64-f80:128-n8:16:32:64-S128"
target triple = "x86_64-pc-linux-gnu"

@.str = private unnamed_addr constant [3 x i8] c"%d\00", align 1
@.str.1 = private unnamed_addr constant [4 x i8] c"%lf\00", align 1
@.str.2 = private unnamed_addr constant [6 x i8] c"%.5f\0A\00", align 1

; Function Attrs: nounwind sspstrong uwtable
define dso_local i32 @main() local_unnamed_addr #0 {
  %1 = alloca i32, align 4
  %2 = alloca i32, align 4
  %3 = bitcast i32* %1 to i8*
  call void @llvm.lifetime.start.p0i8(i64 4, i8* nonnull %3) #6
  %4 = bitcast i32* %2 to i8*
  call void @llvm.lifetime.start.p0i8(i64 4, i8* nonnull %4) #6
  %5 = call i32 (i8*, ...) @__isoc99_scanf(i8* getelementptr inbounds ([3 x i8], [3 x i8]* @.str, i64 0, i64 0), i32* nonnull %1)
  %6 = load i32, i32* %1, align 4, !tbaa !5
  %7 = icmp sgt i32 %6, 0
  br i1 %7, label %8, label %53

8:                                                ; preds = %0, %45
  %9 = phi i32 [ %50, %45 ], [ 0, %0 ]
  %10 = call i32 (i8*, ...) @__isoc99_scanf(i8* getelementptr inbounds ([3 x i8], [3 x i8]* @.str, i64 0, i64 0), i32* nonnull %2)
  %11 = load i32, i32* %2, align 4, !tbaa !5
  %12 = sext i32 %11 to i64
  %13 = shl nsw i64 %12, 3
  %14 = call noalias align 16 i8* @malloc(i64 %13) #6
  %15 = bitcast i8* %14 to double*
  %16 = getelementptr inbounds double, double* %15, i64 %12
  %17 = icmp ugt double* %16, %15
  br i1 %17, label %18, label %29

18:                                               ; preds = %8, %18
  %19 = phi double* [ %24, %18 ], [ %15, %8 ]
  %20 = phi double [ %23, %18 ], [ 0.000000e+00, %8 ]
  %21 = call i32 (i8*, ...) @__isoc99_scanf(i8* getelementptr inbounds ([4 x i8], [4 x i8]* @.str.1, i64 0, i64 0), double* %19)
  %22 = load double, double* %19, align 8, !tbaa !9
  %23 = fadd double %20, %22
  %24 = getelementptr inbounds double, double* %19, i64 1
  %25 = load i32, i32* %2, align 4, !tbaa !5
  %26 = sext i32 %25 to i64
  %27 = getelementptr inbounds double, double* %15, i64 %26
  %28 = icmp ult double* %24, %27
  br i1 %28, label %18, label %29, !llvm.loop !11

29:                                               ; preds = %18, %8
  %30 = phi double [ 0.000000e+00, %8 ], [ %23, %18 ]
  %31 = phi i32 [ %11, %8 ], [ %25, %18 ]
  %32 = phi double* [ %16, %8 ], [ %27, %18 ]
  %33 = sitofp i32 %31 to double
  %34 = fdiv double %30, %33
  %35 = icmp ugt double* %32, %15
  br i1 %35, label %36, label %45

36:                                               ; preds = %29, %36
  %37 = phi double* [ %43, %36 ], [ %15, %29 ]
  %38 = phi double [ %42, %36 ], [ 0.000000e+00, %29 ]
  %39 = load double, double* %37, align 8, !tbaa !9
  %40 = fsub double %39, %34
  %41 = fmul double %40, %40
  %42 = fadd double %38, %41
  %43 = getelementptr inbounds double, double* %37, i64 1
  %44 = icmp ult double* %43, %32
  br i1 %44, label %36, label %45, !llvm.loop !13

45:                                               ; preds = %36, %29
  %46 = phi double [ 0.000000e+00, %29 ], [ %42, %36 ]
  %47 = fdiv double %46, %33
  %48 = call double @pow(double %47, double 5.000000e-01) #6
  %49 = call i32 (i8*, ...) @printf(i8* nonnull dereferenceable(1) getelementptr inbounds ([6 x i8], [6 x i8]* @.str.2, i64 0, i64 0), double %48)
  call void @free(i8* %14) #6
  %50 = add nuw nsw i32 %9, 1
  %51 = load i32, i32* %1, align 4, !tbaa !5
  %52 = icmp slt i32 %50, %51
  br i1 %52, label %8, label %53, !llvm.loop !14

53:                                               ; preds = %45, %0
  call void @llvm.lifetime.end.p0i8(i64 4, i8* nonnull %4) #6
  call void @llvm.lifetime.end.p0i8(i64 4, i8* nonnull %3) #6
  ret i32 0
}

; Function Attrs: argmemonly mustprogress nofree nosync nounwind willreturn
declare void @llvm.lifetime.start.p0i8(i64 immarg, i8* nocapture) #1

; Function Attrs: nofree nounwind
declare noundef i32 @__isoc99_scanf(i8* nocapture noundef readonly, ...) local_unnamed_addr #2

; Function Attrs: inaccessiblememonly mustprogress nofree nounwind willreturn
declare noalias noundef align 16 i8* @malloc(i64 noundef) local_unnamed_addr #3

; Function Attrs: mustprogress nofree nounwind willreturn
declare double @pow(double, double) local_unnamed_addr #4

; Function Attrs: nofree nounwind
declare noundef i32 @printf(i8* nocapture noundef readonly, ...) local_unnamed_addr #2

; Function Attrs: inaccessiblemem_or_argmemonly mustprogress nounwind willreturn
declare void @free(i8* nocapture noundef) local_unnamed_addr #5

; Function Attrs: argmemonly mustprogress nofree nosync nounwind willreturn
declare void @llvm.lifetime.end.p0i8(i64 immarg, i8* nocapture) #1


!llvm.module.flags = !{!0, !1, !2, !3}
!llvm.ident = !{!4}

!0 = !{i32 1, !"wchar_size", i32 4}
!1 = !{i32 7, !"PIC Level", i32 2}
!2 = !{i32 7, !"PIE Level", i32 2}
!3 = !{i32 7, !"uwtable", i32 1}
!4 = !{!"clang version 13.0.0"}
!5 = !{!6, !6, i64 0}
!6 = !{!"int", !7, i64 0}
!7 = !{!"omnipotent char", !8, i64 0}
!8 = !{!"Simple C/C++ TBAA"}
!9 = !{!10, !10, i64 0}
!10 = !{!"double", !7, i64 0}
!11 = distinct !{!11, !12}
!12 = !{!"llvm.loop.mustprogress"}
!13 = distinct !{!13, !12}
!14 = distinct !{!14, !12}
